target datalayout = "e-m:e-p270:32:32-p271:32:32-p272:64:64-i64:64-i128:128-f80:128-n8:16:32:64-S128"
target triple = "x86_64-unknown-linux-gnu"

%"class.llvh::ilist_node_impl" = type { %"class.llvh::ilist_node_base" }
%"class.llvh::ilist_node_base" = type { ptr, ptr }
%"class.llvh::SMLoc" = type { ptr }
%"class.hermes::Identifier" = type { ptr }
%"class.llvh::SMRange" = type { %"class.llvh::SMLoc", %"class.llvh::SMLoc" }
%"class.hermes::irgen::ESTreeIRGen" = type { ptr, %"class.hermes::IRBuilder", %"class.hermes::IRInstrument", ptr, ptr, ptr, ptr, %"class.hermes::ScopedHashTable", %"class.std::shared_ptr", %"class.hermes::Identifier", %"class.hermes::Identifier", %"class.hermes::Identifier", ptr, ptr, %"class.llvh::DenseMap.2" }
%"class.hermes::IRBuilder" = type { ptr, %"class.llvh::ilist_iterator.0", ptr, %"class.llvh::SMLoc", ptr }
%"class.llvh::ilist_iterator.0" = type { ptr }
%"class.hermes::IRInstrument" = type { i8 }
%"class.hermes::ScopedHashTable" = type { %"class.llvh::DenseMap", ptr }
%"class.llvh::DenseMap" = type <{ ptr, i32, i32, i32, [4 x i8] }>
%"class.std::shared_ptr" = type { %"class.std::__shared_ptr" }
%"class.std::__shared_ptr" = type { ptr, %"class.std::__shared_count" }
%"class.std::__shared_count" = type { ptr }
%"class.llvh::DenseMap.2" = type <{ ptr, i32, i32, i32, [4 x i8] }>
%"class.hermes::ESTree::StatementNode" = type { %"class.hermes::ESTree::Node" }
%"class.hermes::ESTree::Node" = type { %"class.llvh::ilist_node", i32, i32, %"class.llvh::SMRange", %"class.llvh::SMLoc" }
%"class.llvh::ilist_node" = type { %"class.llvh::ilist_node_impl" }
%"class.llvh::SmallVectorBase" = type { ptr, i32, i32 }
%"class.hermes::Value" = type { i8, %"class.hermes::Type", %"class.llvh::SmallVector" }
%"class.hermes::Type" = type { i16, i16 }
%"class.llvh::SmallVector" = type { %"class.llvh::SmallVectorImpl", %"struct.llvh::SmallVectorStorage" }
%"class.llvh::SmallVectorImpl" = type { %"class.llvh::SmallVectorTemplateBase" }
%"class.llvh::SmallVectorTemplateBase" = type { %"class.llvh::SmallVectorTemplateCommon" }
%"class.llvh::SmallVectorTemplateCommon" = type { %"class.llvh::SmallVectorBase" }
%"struct.llvh::SmallVectorStorage" = type { [2 x %"struct.llvh::AlignedCharArrayUnion"] }
%"struct.llvh::AlignedCharArrayUnion" = type { %"struct.llvh::AlignedCharArray" }
%"struct.llvh::AlignedCharArray" = type { [8 x i8] }
%"class.llvh::ilist_node_impl.119" = type { %"class.llvh::ilist_node_base" }
%"class.hermes::ESTree::IfStatementNode" = type { %"class.hermes::ESTree::StatementNode", ptr, ptr, ptr }
%"class.hermes::BasicBlock" = type { %"class.llvh::ilist_node_with_parent.133", %"class.hermes::Value", %"class.llvh::iplist.135", ptr }
%"class.llvh::ilist_node_with_parent.133" = type { %"class.llvh::ilist_node.134" }
%"class.llvh::ilist_node.134" = type { %"class.llvh::ilist_node_impl.119" }
%"class.llvh::iplist.135" = type { %"class.llvh::iplist_impl.136" }
%"class.llvh::iplist_impl.136" = type { %"class.llvh::simple_ilist.141" }
%"class.llvh::simple_ilist.141" = type { %"class.llvh::ilist_sentinel.142" }
%"class.llvh::ilist_sentinel.142" = type { %"class.llvh::ilist_node_impl.143" }
%"class.llvh::ilist_node_impl.143" = type { %"class.llvh::ilist_node_base" }

; Function Attrs: mustprogress nounwind uwtable
define linkonce_odr hidden noundef ptr @_ZNK6hermes10BasicBlock9getParentEv(ptr noundef nonnull align 8 dereferenceable(80) %this) #0 comdat align 2 {
entry:
  %this.addr = alloca ptr, align 8
  store ptr %this, ptr %this.addr, align 8
  %this1 = load ptr, ptr %this.addr, align 8
  %Parent = getelementptr inbounds %"class.hermes::BasicBlock", ptr %this1, i32 0, i32 3
  %0 = load ptr, ptr %Parent, align 8
  ret ptr %0
}

; Function Attrs: mustprogress nounwind uwtable
define hidden void @_ZN6hermes5irgen11ESTreeIRGen14genIfStatementEPNS_6ESTree15IfStatementNodeE(ptr noundef nonnull align 8 dereferenceable(200) %this, ptr noundef %IfStmt) #0 align 2 {
entry:
  %this.addr = alloca ptr, align 8
  %IfStmt.addr = alloca ptr, align 8
  %Parent = alloca ptr, align 8
  %ThenBlock = alloca ptr, align 8
  %ElseBlock = alloca ptr, align 8
  %ContinueBlock = alloca ptr, align 8
  store ptr %this, ptr %this.addr, align 8
  store ptr %IfStmt, ptr %IfStmt.addr, align 8
  %this1 = load ptr, ptr %this.addr, align 8
  br label %do.body

do.body:                                          ; preds = %entry
  br label %do.end

do.end:                                           ; preds = %do.body
  %Builder = getelementptr inbounds %"class.hermes::irgen::ESTreeIRGen", ptr %this1, i32 0, i32 1
  %call = call noundef ptr @_ZN6hermes9IRBuilder17getInsertionBlockEv(ptr noundef nonnull align 8 dereferenceable(40) %Builder)
  %call2 = call noundef ptr @_ZNK6hermes10BasicBlock9getParentEv(ptr noundef nonnull align 8 dereferenceable(80) %call)
  store ptr %call2, ptr %Parent, align 8
  %Builder3 = getelementptr inbounds %"class.hermes::irgen::ESTreeIRGen", ptr %this1, i32 0, i32 1
  %0 = load ptr, ptr %Parent, align 8
  %call4 = call noundef ptr @_ZN6hermes9IRBuilder16createBasicBlockEPNS_8FunctionE(ptr noundef nonnull align 8 dereferenceable(40) %Builder3, ptr noundef %0)
  store ptr %call4, ptr %ThenBlock, align 8
  %Builder5 = getelementptr inbounds %"class.hermes::irgen::ESTreeIRGen", ptr %this1, i32 0, i32 1
  %1 = load ptr, ptr %Parent, align 8
  %call6 = call noundef ptr @_ZN6hermes9IRBuilder16createBasicBlockEPNS_8FunctionE(ptr noundef nonnull align 8 dereferenceable(40) %Builder5, ptr noundef %1)
  store ptr %call6, ptr %ElseBlock, align 8
  %Builder7 = getelementptr inbounds %"class.hermes::irgen::ESTreeIRGen", ptr %this1, i32 0, i32 1
  %2 = load ptr, ptr %Parent, align 8
  %call8 = call noundef ptr @_ZN6hermes9IRBuilder16createBasicBlockEPNS_8FunctionE(ptr noundef nonnull align 8 dereferenceable(40) %Builder7, ptr noundef %2)
  store ptr %call8, ptr %ContinueBlock, align 8
  %3 = load ptr, ptr %IfStmt.addr, align 8
  %_test = getelementptr inbounds %"class.hermes::ESTree::IfStatementNode", ptr %3, i32 0, i32 1
  %4 = load ptr, ptr %_test, align 8
  %5 = load ptr, ptr %ThenBlock, align 8
  %6 = load ptr, ptr %ElseBlock, align 8
  call void @_ZN6hermes5irgen11ESTreeIRGen19genExpressionBranchEPNS_6ESTree4NodeEPNS_10BasicBlockES6_S6_(ptr noundef nonnull align 8 dereferenceable(200) %this1, ptr noundef %4, ptr noundef %5, ptr noundef %6, ptr noundef null)
  %Builder9 = getelementptr inbounds %"class.hermes::irgen::ESTreeIRGen", ptr %this1, i32 0, i32 1
  %7 = load ptr, ptr %ThenBlock, align 8
  call void @_ZN6hermes9IRBuilder17setInsertionBlockEPNS_10BasicBlockE(ptr noundef nonnull align 8 dereferenceable(40) %Builder9, ptr noundef %7)
  %8 = load ptr, ptr %IfStmt.addr, align 8
  %_consequent = getelementptr inbounds %"class.hermes::ESTree::IfStatementNode", ptr %8, i32 0, i32 2
  %9 = load ptr, ptr %_consequent, align 8
  call void @_ZN6hermes5irgen11ESTreeIRGen12genStatementEPNS_6ESTree4NodeENS1_10IsLoopBodyE(ptr noundef nonnull align 8 dereferenceable(200) %this1, ptr noundef %9, i32 noundef 0)
  %Builder10 = getelementptr inbounds %"class.hermes::irgen::ESTreeIRGen", ptr %this1, i32 0, i32 1
  %10 = load ptr, ptr %ContinueBlock, align 8
  %call11 = call noundef ptr @_ZN6hermes9IRBuilder16createBranchInstEPNS_10BasicBlockE(ptr noundef nonnull align 8 dereferenceable(40) %Builder10, ptr noundef %10)
  %Builder12 = getelementptr inbounds %"class.hermes::irgen::ESTreeIRGen", ptr %this1, i32 0, i32 1
  %11 = load ptr, ptr %ElseBlock, align 8
  call void @_ZN6hermes9IRBuilder17setInsertionBlockEPNS_10BasicBlockE(ptr noundef nonnull align 8 dereferenceable(40) %Builder12, ptr noundef %11)
  %12 = load ptr, ptr %IfStmt.addr, align 8
  %_alternate = getelementptr inbounds %"class.hermes::ESTree::IfStatementNode", ptr %12, i32 0, i32 3
  %13 = load ptr, ptr %_alternate, align 8
  %tobool = icmp ne ptr %13, null
  br i1 %tobool, label %if.then, label %if.end

if.then:                                          ; preds = %do.end
  %14 = load ptr, ptr %IfStmt.addr, align 8
  %_alternate13 = getelementptr inbounds %"class.hermes::ESTree::IfStatementNode", ptr %14, i32 0, i32 3
  %15 = load ptr, ptr %_alternate13, align 8
  call void @_ZN6hermes5irgen11ESTreeIRGen12genStatementEPNS_6ESTree4NodeENS1_10IsLoopBodyE(ptr noundef nonnull align 8 dereferenceable(200) %this1, ptr noundef %15, i32 noundef 0)
  br label %if.end

if.end:                                           ; preds = %if.then, %do.end
  %Builder14 = getelementptr inbounds %"class.hermes::irgen::ESTreeIRGen", ptr %this1, i32 0, i32 1
  %16 = load ptr, ptr %ContinueBlock, align 8
  %call15 = call noundef ptr @_ZN6hermes9IRBuilder16createBranchInstEPNS_10BasicBlockE(ptr noundef nonnull align 8 dereferenceable(40) %Builder14, ptr noundef %16)
  %Builder16 = getelementptr inbounds %"class.hermes::irgen::ESTreeIRGen", ptr %this1, i32 0, i32 1
  %17 = load ptr, ptr %ContinueBlock, align 8
  call void @_ZN6hermes9IRBuilder17setInsertionBlockEPNS_10BasicBlockE(ptr noundef nonnull align 8 dereferenceable(40) %Builder16, ptr noundef %17)
  ret void
}