; Function Attrs: mustprogress nounwind uwtable
define hidden void @_ZN6hermes5irgen11ESTreeIRGen14genIfStatementEPNS_6ESTree15IfStatementNodeE(ptr noundef nonnull align 8 dereferenceable(200) %this, ptr noundef readonly captures(none) %IfStmt) local_unnamed_addr #0 align 2 {
entry:
  %Builder = getelementptr inbounds nuw i8, ptr %this, i64 8
  %call = tail call noundef ptr @_ZN6hermes9IRBuilder17getInsertionBlockEv(ptr noundef nonnull align 8 dereferenceable(40) %Builder) #8
  %Parent.i = getelementptr inbounds nuw i8, ptr %call, i64 72
  %0 = load ptr, ptr %Parent.i, align 8
  %call4 = tail call noundef ptr @_ZN6hermes9IRBuilder16createBasicBlockEPNS_8FunctionE(ptr noundef nonnull align 8 dereferenceable(40) %Builder, ptr noundef %0) #8
  %call6 = tail call noundef ptr @_ZN6hermes9IRBuilder16createBasicBlockEPNS_8FunctionE(ptr noundef nonnull align 8 dereferenceable(40) %Builder, ptr noundef %0) #8
  %call8 = tail call noundef ptr @_ZN6hermes9IRBuilder16createBasicBlockEPNS_8FunctionE(ptr noundef nonnull align 8 dereferenceable(40) %Builder, ptr noundef %0) #8
  %_test = getelementptr inbounds nuw i8, ptr %IfStmt, i64 48
  %1 = load ptr, ptr %_test, align 8
  tail call void @_ZN6hermes5irgen11ESTreeIRGen19genExpressionBranchEPNS_6ESTree4NodeEPNS_10BasicBlockES6_S6_(ptr noundef nonnull align 8 dereferenceable(200) %this, ptr noundef %1, ptr noundef %call4, ptr noundef %call6, ptr noundef null) #8
  tail call void @_ZN6hermes9IRBuilder17setInsertionBlockEPNS_10BasicBlockE(ptr noundef nonnull align 8 dereferenceable(40) %Builder, ptr noundef %call4) #8
  %_consequent = getelementptr inbounds nuw i8, ptr %IfStmt, i64 56
  %2 = load ptr, ptr %_consequent, align 8
  tail call void @_ZN6hermes5irgen11ESTreeIRGen12genStatementEPNS_6ESTree4NodeENS1_10IsLoopBodyE(ptr noundef nonnull align 8 dereferenceable(200) %this, ptr noundef %2, i32 noundef 0)
  %call11 = tail call noundef ptr @_ZN6hermes9IRBuilder16createBranchInstEPNS_10BasicBlockE(ptr noundef nonnull align 8 dereferenceable(40) %Builder, ptr noundef %call8) #8
  tail call void @_ZN6hermes9IRBuilder17setInsertionBlockEPNS_10BasicBlockE(ptr noundef nonnull align 8 dereferenceable(40) %Builder, ptr noundef %call6) #8
  %_alternate = getelementptr inbounds nuw i8, ptr %IfStmt, i64 64
  %3 = load ptr, ptr %_alternate, align 8
  %tobool.not = icmp eq ptr %3, null
  br i1 %tobool.not, label %if.end, label %if.then

if.then:                                          ; preds = %entry
  tail call void @_ZN6hermes5irgen11ESTreeIRGen12genStatementEPNS_6ESTree4NodeENS1_10IsLoopBodyE(ptr noundef nonnull align 8 dereferenceable(200) %this, ptr noundef nonnull %3, i32 noundef 0)
  br label %if.end

if.end:                                           ; preds = %if.then, %entry
  %call15 = tail call noundef ptr @_ZN6hermes9IRBuilder16createBranchInstEPNS_10BasicBlockE(ptr noundef nonnull align 8 dereferenceable(40) %Builder, ptr noundef %call8) #8
  tail call void @_ZN6hermes9IRBuilder17setInsertionBlockEPNS_10BasicBlockE(ptr noundef nonnull align 8 dereferenceable(40) %Builder, ptr noundef %call8) #8
  ret void
}